; Function Attrs: mustprogress nounwind uwtable
define dso_local noundef ptr @_ZNK4node6crypto13KeyObjectData15GetSymmetricKeyEv(ptr nocapture noundef nonnull readonly align 8 dereferenceable(72) %this) local_unnamed_addr #3 align 2 {
entry:
  %key_type_ = getelementptr inbounds i8, ptr %this, i64 8
  %0 = load i32, ptr %key_type_, align 8
  %cmp.not = icmp eq i32 %0, 0
  br i1 %cmp.not, label %do.end5, label %do.body4

do.body4:                                         ; preds = %entry
  tail call void @_ZN4node6AssertERKNS_13AssertionInfoE(ptr noundef nonnull align 8 dereferenceable(24) @_ZZNK4node6crypto13KeyObjectData15GetSymmetricKeyEvE4args) #24
  tail call void @abort() #25
  unreachable

do.end5:                                          ; preds = %entry
  %symmetric_key_ = getelementptr inbounds i8, ptr %this, i64 16
  %1 = load ptr, ptr %symmetric_key_, align 8
  ret ptr %1
}